; Function Attrs: mustprogress uwtable
define hidden void @_ZN3smt17theory_array_full22add_theory_assumptionsER10ref_vectorI4expr11ast_managerE(ptr nocapture noundef nonnull readonly align 8 dereferenceable(608) %this, ptr noundef nonnull align 8 dereferenceable(16) %assumptions) unnamed_addr #3 align 2 {
entry:
  %m_bapa = getelementptr inbounds i8, ptr %this, i64 104
  %0 = load ptr, ptr %m_bapa, align 8
  %cmp.i.not = icmp eq ptr %0, null
  br i1 %cmp.i.not, label %if.end, label %if.then

if.then:                                          ; preds = %entry
  tail call void @_ZN3smt17theory_array_bapa22add_theory_assumptionsER10ref_vectorI4expr11ast_managerE(ptr noundef nonnull align 8 dereferenceable(8) %0, ptr noundef nonnull align 8 dereferenceable(16) %assumptions)
  br label %if.end

if.end:                                           ; preds = %if.then, %entry
  ret void
}